; Function Attrs: nounwind uwtable
define internal fastcc ptr @printTypmod(ptr noundef %0, i32 noundef range(i32 0, -2147483648) %1, i32 noundef %2) unnamed_addr #0 {
  %4 = icmp eq i32 %2, 0
  br i1 %4, label %5, label %7

5:                                                ; preds = %3
  %6 = tail call ptr (ptr, ...) @psprintf(ptr noundef nonnull @.str.26, ptr noundef %0, i32 noundef %1) #7
  br label %12

7:                                                ; preds = %3
  %8 = zext nneg i32 %1 to i64
  %9 = tail call i64 @OidFunctionCall1Coll(i32 noundef %2, i32 noundef 0, i64 noundef %8) #7
  %10 = inttoptr i64 %9 to ptr
  %11 = tail call ptr (ptr, ...) @psprintf(ptr noundef nonnull @.str.27, ptr noundef %0, ptr noundef %10) #7
  br label %12

12:                                               ; preds = %7, %5
  %.0 = phi ptr [ %6, %5 ], [ %11, %7 ]
  ret ptr %.0
}